; Function Attrs: mustprogress nounwind uwtable
define dso_local void @_ZN4llvm24DecodeSubVectorBroadcastEjjRNS_15SmallVectorImplIiEE(i32 noundef %0, i32 noundef %1, ptr noundef nonnull align 8 dereferenceable(16) %2) local_unnamed_addr #0 {
  %4 = udiv i32 %0, %1
  %.not12 = icmp ugt i32 %1, %0
  br i1 %.not12, label %._crit_edge, label %.preheader.lr.ph

.preheader.lr.ph:                                 ; preds = %3
  %5 = getelementptr inbounds nuw i8, ptr %2, i64 16
  br label %.preheader

.preheader:                                       ; preds = %.preheader.lr.ph, %17
  %.0913 = phi i32 [ 0, %.preheader.lr.ph ], [ %18, %17 ]
  br label %6

6:                                                ; preds = %.preheader, %_ZN4llvm23SmallVectorTemplateBaseIiLb1EE9push_backEi.exit
  %.011 = phi i32 [ 0, %.preheader ], [ %16, %_ZN4llvm23SmallVectorTemplateBaseIiLb1EE9push_backEi.exit ]
  %7 = tail call noundef i64 @_ZNK4llvm15SmallVectorBaseIjE4sizeEv(ptr noundef nonnull align 8 dereferenceable(16) %2) #4
  %8 = add i64 %7, 1
  %9 = tail call noundef i64 @_ZNK4llvm15SmallVectorBaseIjE8capacityEv(ptr noundef nonnull align 8 dereferenceable(16) %2) #4
  %.not.i.i.i = icmp ugt i64 %8, %9
  br i1 %.not.i.i.i, label %10, label %_ZN4llvm23SmallVectorTemplateBaseIiLb1EE9push_backEi.exit

10:                                               ; preds = %6
  tail call void @_ZN4llvm15SmallVectorBaseIjE8grow_podEPvmm(ptr noundef nonnull align 8 dereferenceable(16) %2, ptr noundef nonnull %5, i64 noundef %8, i64 noundef 4) #4
  br label %_ZN4llvm23SmallVectorTemplateBaseIiLb1EE9push_backEi.exit

_ZN4llvm23SmallVectorTemplateBaseIiLb1EE9push_backEi.exit: ; preds = %6, %10
  %11 = load ptr, ptr %2, align 8
  %12 = tail call noundef i64 @_ZNK4llvm15SmallVectorBaseIjE4sizeEv(ptr noundef nonnull align 8 dereferenceable(16) %2) #4
  %13 = getelementptr inbounds i32, ptr %11, i64 %12
  store i32 %.011, ptr %13, align 1
  %14 = tail call noundef i64 @_ZNK4llvm15SmallVectorBaseIjE4sizeEv(ptr noundef nonnull align 8 dereferenceable(16) %2) #4
  %15 = add i64 %14, 1
  tail call void @_ZN4llvm15SmallVectorBaseIjE8set_sizeEm(ptr noundef nonnull align 8 dereferenceable(16) %2, i64 noundef %15) #4
  %16 = add i32 %.011, 1
  %.not10 = icmp eq i32 %16, %1
  br i1 %.not10, label %17, label %6, !llvm.loop !39

17:                                               ; preds = %_ZN4llvm23SmallVectorTemplateBaseIiLb1EE9push_backEi.exit
  %18 = add i32 %.0913, 1
  %.not = icmp eq i32 %18, %4
  br i1 %.not, label %._crit_edge, label %.preheader, !llvm.loop !40

._crit_edge:                                      ; preds = %17, %3
  ret void
}